target datalayout = "e-m:e-p270:32:32-p271:32:32-p272:64:64-i64:64-i128:128-f80:128-n8:16:32:64-S128"
target triple = "x86_64-pc-linux-gnu"

; Function Attrs: nounwind uwtable
define internal i32 @zueci_ascii_inv_u(ptr noundef %0, i32 noundef %1, i32 noundef %2, ptr noundef %3) #0 {
  %5 = alloca i32, align 4
  %6 = alloca ptr, align 8
  %7 = alloca i32, align 4
  %8 = alloca i32, align 4
  %9 = alloca ptr, align 8
  %10 = alloca i8, align 1
  store ptr %0, ptr %6, align 8
  store i32 %1, ptr %7, align 4
  store i32 %2, ptr %8, align 4
  store ptr %3, ptr %9, align 8
  %11 = load ptr, ptr %6, align 8
  %12 = load i8, ptr %11, align 1
  store i8 %12, ptr %10, align 1
  %13 = load i32, ptr %8, align 4
  %14 = and i32 %13, 1
  %15 = icmp ne i32 %14, 0
  br i1 %15, label %48, label %16

16:                                               ; preds = %4
  %17 = load i8, ptr %10, align 1
  %18 = zext i8 %17 to i32
  %19 = icmp eq i32 %18, 127
  br i1 %19, label %48, label %20

20:                                               ; preds = %16
  %21 = load i8, ptr %10, align 1
  %22 = zext i8 %21 to i32
  %23 = icmp sle i32 %22, 122
  br i1 %23, label %24, label %52

24:                                               ; preds = %20
  %25 = load i8, ptr %10, align 1
  %26 = zext i8 %25 to i32
  %27 = icmp ne i32 %26, 35
  br i1 %27, label %28, label %52

28:                                               ; preds = %24
  %29 = load i8, ptr %10, align 1
  %30 = zext i8 %29 to i32
  %31 = icmp ne i32 %30, 36
  br i1 %31, label %32, label %52

32:                                               ; preds = %28
  %33 = load i8, ptr %10, align 1
  %34 = zext i8 %33 to i32
  %35 = icmp ne i32 %34, 64
  br i1 %35, label %36, label %52

36:                                               ; preds = %32
  %37 = load i8, ptr %10, align 1
  %38 = zext i8 %37 to i32
  %39 = icmp sle i32 %38, 90
  br i1 %39, label %48, label %40

40:                                               ; preds = %36
  %41 = load i8, ptr %10, align 1
  %42 = zext i8 %41 to i32
  %43 = icmp eq i32 %42, 95
  br i1 %43, label %48, label %44

44:                                               ; preds = %40
  %45 = load i8, ptr %10, align 1
  %46 = zext i8 %45 to i32
  %47 = icmp sge i32 %46, 97
  br i1 %47, label %48, label %52

48:                                               ; preds = %44, %40, %36, %16, %4
  %49 = load i8, ptr %10, align 1
  %50 = zext i8 %49 to i32
  %51 = load ptr, ptr %9, align 8
  store i32 %50, ptr %51, align 4
  store i32 1, ptr %5, align 4
  br label %53

52:                                               ; preds = %44, %32, %28, %24, %20
  store i32 0, ptr %5, align 4
  br label %53

53:                                               ; preds = %52, %48
  %54 = load i32, ptr %5, align 4
  ret i32 %54
}