; Function Attrs: mustprogress nofree norecurse nosync nounwind willreturn memory(argmem: readwrite) uwtable
define internal noundef i32 @zueci_ascii_inv_u(ptr nocapture noundef readonly %0, i32 %1, i32 noundef %2, ptr nocapture noundef writeonly %3) unnamed_addr #6 {
  %5 = load i8, ptr %0, align 1
  %.fr = freeze i8 %5
  %6 = and i32 %2, 1
  %7 = icmp ne i32 %6, 0
  %8 = zext i8 %.fr to i32
  %9 = icmp eq i8 %.fr, 127
  %or.cond = or i1 %7, %9
  br i1 %or.cond, label %16, label %10

10:                                               ; preds = %4
  %11 = icmp ult i8 %.fr, 123
  br i1 %11, label %switch.early.test, label %17

switch.early.test:                                ; preds = %10
  switch i8 %.fr, label %12 [
    i8 64, label %17
    i8 36, label %17
    i8 35, label %17
  ]

12:                                               ; preds = %switch.early.test
  %13 = icmp eq i8 %.fr, 95
  %14 = add nsw i8 %.fr, -97
  %15 = icmp ult i8 %14, -6
  %or.cond17 = or i1 %13, %15
  br i1 %or.cond17, label %16, label %17

16:                                               ; preds = %12, %4
  store i32 %8, ptr %3, align 4
  br label %17

17:                                               ; preds = %12, %10, %switch.early.test, %switch.early.test, %switch.early.test, %16
  %.0 = phi i32 [ 1, %16 ], [ 0, %switch.early.test ], [ 0, %switch.early.test ], [ 0, %switch.early.test ], [ 0, %10 ], [ 0, %12 ]
  ret i32 %.0
}